; Function Attrs: nounwind uwtable
define ptr @l_Lean_log___at_Lean_Core_wrapAsyncAsSnapshot___spec__13___boxed(ptr noundef %0, ptr noundef %1, ptr noundef %2, ptr noundef %3, ptr noundef %4) local_unnamed_addr #1 {
  %6 = ptrtoint ptr %1 to i64
  %7 = lshr i64 %6, 1
  %8 = trunc i64 %7 to i8
  %9 = and i64 %6, 1
  %.not = icmp eq i64 %9, 0
  br i1 %.not, label %10, label %lean_dec.exit8

10:                                               ; preds = %5
  %11 = load i32, ptr %1, align 4, !tbaa !4
  %12 = icmp sgt i32 %11, 1
  br i1 %12, label %13, label %15, !prof !11

13:                                               ; preds = %10
  %14 = add nsw i32 %11, -1
  store i32 %14, ptr %1, align 4, !tbaa !4
  br label %lean_dec.exit8

15:                                               ; preds = %10
  %.not.i = icmp eq i32 %11, 0
  br i1 %.not.i, label %lean_dec.exit8, label %16

16:                                               ; preds = %15
  tail call void @lean_dec_ref_cold(ptr noundef nonnull %1) #7
  br label %lean_dec.exit8

lean_dec.exit8:                                   ; preds = %16, %15, %13, %5
  %17 = getelementptr inbounds nuw i8, ptr %2, i64 48
  %18 = load ptr, ptr %17, align 8, !tbaa !9
  %19 = ptrtoint ptr %18 to i64
  %20 = and i64 %19, 1
  %.not.i11 = icmp eq i64 %20, 0
  br i1 %.not.i11, label %21, label %lean_inc.exit.i

21:                                               ; preds = %lean_dec.exit8
  %.val.i.i = load i32, ptr %18, align 4, !tbaa !4
  %22 = icmp sgt i32 %.val.i.i, 0
  br i1 %22, label %23, label %25, !prof !11

23:                                               ; preds = %21
  %24 = add nuw i32 %.val.i.i, 1
  store i32 %24, ptr %18, align 4, !tbaa !4
  br label %28

25:                                               ; preds = %21
  %.not.i10.i = icmp eq i32 %.val.i.i, 0
  br i1 %.not.i10.i, label %28, label %26

26:                                               ; preds = %25
  tail call void @lean_inc_ref_cold(ptr noundef nonnull %18) #7
  br label %28

lean_inc.exit.i:                                  ; preds = %lean_dec.exit8
  %27 = tail call ptr @l_Lean_logAt___at_Lean_Core_wrapAsyncAsSnapshot___spec__14(ptr noundef %18, ptr noundef %0, i8 noundef zeroext %8, i8 noundef zeroext 0, ptr noundef nonnull %2, ptr noundef %3, ptr noundef %4)
  br label %l_Lean_log___at_Lean_Core_wrapAsyncAsSnapshot___spec__13.exit

28:                                               ; preds = %26, %25, %23
  %29 = tail call ptr @l_Lean_logAt___at_Lean_Core_wrapAsyncAsSnapshot___spec__14(ptr noundef nonnull %18, ptr noundef %0, i8 noundef zeroext %8, i8 noundef zeroext 0, ptr noundef nonnull %2, ptr noundef %3, ptr noundef %4)
  %30 = load i32, ptr %18, align 4, !tbaa !4
  %31 = icmp sgt i32 %30, 1
  br i1 %31, label %32, label %34, !prof !11

32:                                               ; preds = %28
  %33 = add nsw i32 %30, -1
  store i32 %33, ptr %18, align 4, !tbaa !4
  br label %l_Lean_log___at_Lean_Core_wrapAsyncAsSnapshot___spec__13.exit

34:                                               ; preds = %28
  %.not.i.i = icmp eq i32 %30, 0
  br i1 %.not.i.i, label %l_Lean_log___at_Lean_Core_wrapAsyncAsSnapshot___spec__13.exit, label %35

35:                                               ; preds = %34
  tail call void @lean_dec_ref_cold(ptr noundef nonnull %18) #7
  br label %l_Lean_log___at_Lean_Core_wrapAsyncAsSnapshot___spec__13.exit

l_Lean_log___at_Lean_Core_wrapAsyncAsSnapshot___spec__13.exit: ; preds = %lean_inc.exit.i, %32, %34, %35
  %36 = phi ptr [ %27, %lean_inc.exit.i ], [ %29, %32 ], [ %29, %34 ], [ %29, %35 ]
  %37 = ptrtoint ptr %3 to i64
  %38 = and i64 %37, 1
  %.not12 = icmp eq i64 %38, 0
  br i1 %.not12, label %39, label %lean_dec.exit

39:                                               ; preds = %l_Lean_log___at_Lean_Core_wrapAsyncAsSnapshot___spec__13.exit
  %40 = load i32, ptr %3, align 4, !tbaa !4
  %41 = icmp sgt i32 %40, 1
  br i1 %41, label %42, label %44, !prof !11

42:                                               ; preds = %39
  %43 = add nsw i32 %40, -1
  store i32 %43, ptr %3, align 4, !tbaa !4
  br label %lean_dec.exit

44:                                               ; preds = %39
  %.not.i9 = icmp eq i32 %40, 0
  br i1 %.not.i9, label %lean_dec.exit, label %45

45:                                               ; preds = %44
  tail call void @lean_dec_ref_cold(ptr noundef nonnull %3) #7
  br label %lean_dec.exit

lean_dec.exit:                                    ; preds = %45, %44, %42, %l_Lean_log___at_Lean_Core_wrapAsyncAsSnapshot___spec__13.exit
  ret ptr %36
}